target datalayout = "e-m:e-p270:32:32-p271:32:32-p272:64:64-i64:64-i128:128-f80:128-n8:16:32:64-S128"
target triple = "x86_64-pc-linux-gnu"

%union.pthread_mutex_t = type { %struct.__pthread_mutex_s }
%struct.__pthread_mutex_s = type { i32, i32, i32, i32, i32, i16, i16, %struct.__pthread_internal_list }
%struct.__pthread_internal_list = type { ptr, ptr }
%"class.std::lock_guard" = type { ptr }
%"class.std::__mutex_base" = type { %union.pthread_mutex_t }

@je_opt_experimental_infallible_new = external global i8, align 1
@.str.5 = private unnamed_addr constant [121 x i8] c"This may be caused by heap corruption, if the large size is unexpected (suggest building with sanitizers for debugging).\00", align 1
@.str.6 = private unnamed_addr constant [1 x i8] zeroinitializer, align 1
@.str.7 = private unnamed_addr constant [98 x i8] c"<jemalloc>: Allocation of size %zu failed. %s opt.experimental_infallible_new is true. Aborting.\0A\00", align 1
@_ZZL9handleOOMmbE3mtx = internal global { %union.pthread_mutex_t } zeroinitializer, align 8
@_ZTISt9bad_alloc = external constant ptr

; Function Attrs: inlinehint mustprogress nounwind uwtable
define internal noundef i32 @_ZL18__gthread_active_pv() #14 {
  ret i32 1
}

; Function Attrs: inlinehint mustprogress nounwind uwtable
define internal noundef i32 @_ZL22__gthread_mutex_unlockP15pthread_mutex_t(ptr noundef %0) #14 {
  %2 = alloca i32, align 4
  %3 = alloca ptr, align 8
  store ptr %0, ptr %3, align 8, !tbaa !8
  %4 = call noundef i32 @_ZL18__gthread_active_pv()
  %5 = icmp ne i32 %4, 0
  br i1 %5, label %6, label %9

6:                                                ; preds = %1
  %7 = load ptr, ptr %3, align 8, !tbaa !8
  %8 = call i32 @pthread_mutex_unlock(ptr noundef %7) #26
  store i32 %8, ptr %2, align 4
  br label %10

9:                                                ; preds = %1
  store i32 0, ptr %2, align 4
  br label %10

10:                                               ; preds = %9, %6
  %11 = load i32, ptr %2, align 4
  ret i32 %11
}

; Function Attrs: inlinehint mustprogress uwtable
define internal noundef i32 @_ZL20__gthread_mutex_lockP15pthread_mutex_t(ptr noundef %0) #10 {
  %2 = alloca i32, align 4
  %3 = alloca ptr, align 8
  store ptr %0, ptr %3, align 8, !tbaa !8
  %4 = call noundef i32 @_ZL18__gthread_active_pv()
  %5 = icmp ne i32 %4, 0
  br i1 %5, label %6, label %9

6:                                                ; preds = %1
  %7 = load ptr, ptr %3, align 8, !tbaa !8
  %8 = call i32 @pthread_mutex_lock(ptr noundef %7) #26
  store i32 %8, ptr %2, align 4
  br label %10

9:                                                ; preds = %1
  store i32 0, ptr %2, align 4
  br label %10

10:                                               ; preds = %9, %6
  %11 = load i32, ptr %2, align 4
  ret i32 %11
}

; Function Attrs: noinline noreturn nounwind uwtable
define linkonce_odr hidden void @__clang_call_terminate(ptr noundef %0) #5 comdat {
  %2 = call ptr @__cxa_begin_catch(ptr %0) #26
  call void @_ZSt9terminatev() #27
  unreachable
}

; Function Attrs: mustprogress uwtable
define linkonce_odr dso_local void @_ZNSt5mutex6unlockEv(ptr noundef nonnull align 8 dereferenceable(40) %0) #18 comdat align 2 {
  %2 = alloca ptr, align 8
  store ptr %0, ptr %2, align 8, !tbaa !93
  %3 = load ptr, ptr %2, align 8
  %4 = getelementptr inbounds nuw %"class.std::__mutex_base", ptr %3, i32 0, i32 0
  %5 = call noundef i32 @_ZL22__gthread_mutex_unlockP15pthread_mutex_t(ptr noundef %4)
  ret void
}

; Function Attrs: mustprogress uwtable
define linkonce_odr dso_local void @_ZNSt5mutex4lockEv(ptr noundef nonnull align 8 dereferenceable(40) %0) #18 comdat align 2 {
  %2 = alloca ptr, align 8
  %3 = alloca i32, align 4
  store ptr %0, ptr %2, align 8, !tbaa !93
  %4 = load ptr, ptr %2, align 8
  call void @llvm.lifetime.start.p0(i64 4, ptr %3) #26
  %5 = getelementptr inbounds nuw %"class.std::__mutex_base", ptr %4, i32 0, i32 0
  %6 = call noundef i32 @_ZL20__gthread_mutex_lockP15pthread_mutex_t(ptr noundef %5)
  store i32 %6, ptr %3, align 4, !tbaa !38
  %7 = load i32, ptr %3, align 4, !tbaa !38
  %8 = icmp ne i32 %7, 0
  br i1 %8, label %9, label %11

9:                                                ; preds = %1
  %10 = load i32, ptr %3, align 4, !tbaa !38
  call void @_ZSt20__throw_system_errori(i32 noundef %10) #31
  unreachable

11:                                               ; preds = %1
  call void @llvm.lifetime.end.p0(i64 4, ptr %3) #26
  ret void
}

; Function Attrs: mustprogress nounwind uwtable
define linkonce_odr dso_local void @_ZNSt10lock_guardISt5mutexED2Ev(ptr noundef nonnull align 8 dereferenceable(8) %0) unnamed_addr #20 comdat align 2 personality ptr @__gxx_personality_v0 {
  %2 = alloca ptr, align 8
  store ptr %0, ptr %2, align 8, !tbaa !91
  %3 = load ptr, ptr %2, align 8
  %4 = getelementptr inbounds nuw %"class.std::lock_guard", ptr %3, i32 0, i32 0
  %5 = load ptr, ptr %4, align 8, !tbaa !95
  invoke void @_ZNSt5mutex6unlockEv(ptr noundef nonnull align 8 dereferenceable(40) %5)
          to label %6 unwind label %7

6:                                                ; preds = %1
  ret void

7:                                                ; preds = %1
  %8 = landingpad { ptr, i32 }
          catch ptr null
  %9 = extractvalue { ptr, i32 } %8, 0
  call void @__clang_call_terminate(ptr %9) #27
  unreachable
}

; Function Attrs: mustprogress uwtable
define linkonce_odr dso_local void @_ZNSt10lock_guardISt5mutexEC2ERS0_(ptr noundef nonnull align 8 dereferenceable(8) %0, ptr noundef nonnull align 8 dereferenceable(40) %1) unnamed_addr #18 comdat align 2 {
  %3 = alloca ptr, align 8
  %4 = alloca ptr, align 8
  store ptr %0, ptr %3, align 8, !tbaa !91
  store ptr %1, ptr %4, align 8, !tbaa !93
  %5 = load ptr, ptr %3, align 8
  %6 = getelementptr inbounds nuw %"class.std::lock_guard", ptr %5, i32 0, i32 0
  %7 = load ptr, ptr %4, align 8, !tbaa !93
  store ptr %7, ptr %6, align 8, !tbaa !93
  %8 = getelementptr inbounds nuw %"class.std::lock_guard", ptr %5, i32 0, i32 0
  %9 = load ptr, ptr %8, align 8, !tbaa !95
  call void @_ZNSt5mutex4lockEv(ptr noundef nonnull align 8 dereferenceable(40) %9)
  ret void
}

; Function Attrs: mustprogress noinline uwtable
define internal noundef ptr @_ZL9handleOOMmb(i64 noundef %0, i1 noundef zeroext %1) #17 personality ptr @__gxx_personality_v0 {
  %3 = alloca ptr, align 8
  %4 = alloca i64, align 8
  %5 = alloca i8, align 1
  %6 = alloca ptr, align 8
  %7 = alloca ptr, align 8
  %8 = alloca ptr, align 8
  %9 = alloca %"class.std::lock_guard", align 8
  %10 = alloca i32, align 4
  %11 = alloca ptr, align 8
  %12 = alloca i32, align 4
  %13 = alloca ptr, align 8
  store i64 %0, ptr %4, align 8, !tbaa !4
  %14 = zext i1 %1 to i8
  store i8 %14, ptr %5, align 1, !tbaa !14
  %15 = load i8, ptr @je_opt_experimental_infallible_new, align 1, !tbaa !14, !range !18, !noundef !19
  %16 = trunc i8 %15 to i1
  br i1 %16, label %17, label %23

17:                                               ; preds = %2
  call void @llvm.lifetime.start.p0(i64 8, ptr %6) #26
  %18 = load i64, ptr %4, align 8, !tbaa !4
  %19 = icmp uge i64 %18, 1073741824
  %20 = select i1 %19, ptr @.str.5, ptr @.str.6
  store ptr %20, ptr %6, align 8, !tbaa !87
  %21 = load i64, ptr %4, align 8, !tbaa !4
  %22 = load ptr, ptr %6, align 8, !tbaa !87
  call void (ptr, ...) @je_safety_check_fail(ptr noundef @.str.7, i64 noundef %21, ptr noundef %22)
  store ptr null, ptr %3, align 8
  call void @llvm.lifetime.end.p0(i64 8, ptr %6) #26
  br label %64

23:                                               ; preds = %2
  call void @llvm.lifetime.start.p0(i64 8, ptr %7) #26
  store ptr null, ptr %7, align 8, !tbaa !8
  br label %24

24:                                               ; preds = %53, %23
  %25 = load ptr, ptr %7, align 8, !tbaa !8
  %26 = icmp eq ptr %25, null
  br i1 %26, label %27, label %55

27:                                               ; preds = %24
  call void @llvm.lifetime.start.p0(i64 8, ptr %8) #26
  call void @llvm.lifetime.start.p0(i64 8, ptr %9) #26
  call void @_ZNSt10lock_guardISt5mutexEC2ERS0_(ptr noundef nonnull align 8 dereferenceable(8) %9, ptr noundef nonnull align 8 dereferenceable(40) @_ZZL9handleOOMmbE3mtx)
  %28 = call noundef ptr @_ZSt15set_new_handlerPFvvE(ptr noundef null) #26
  store ptr %28, ptr %8, align 8, !tbaa !8
  %29 = load ptr, ptr %8, align 8, !tbaa !8
  %30 = call noundef ptr @_ZSt15set_new_handlerPFvvE(ptr noundef %29) #26
  call void @_ZNSt10lock_guardISt5mutexED2Ev(ptr noundef nonnull align 8 dereferenceable(8) %9) #26
  call void @llvm.lifetime.end.p0(i64 8, ptr %9) #26
  %31 = load ptr, ptr %8, align 8, !tbaa !8
  %32 = icmp eq ptr %31, null
  br i1 %32, label %33, label %34

33:                                               ; preds = %27
  store i32 3, ptr %10, align 4
  br label %51

34:                                               ; preds = %27
  %35 = load ptr, ptr %8, align 8, !tbaa !8
  invoke void %35()
          to label %36 unwind label %37

36:                                               ; preds = %34
  br label %48

37:                                               ; preds = %34
  %38 = landingpad { ptr, i32 }
          cleanup
          catch ptr @_ZTISt9bad_alloc
  %39 = extractvalue { ptr, i32 } %38, 0
  store ptr %39, ptr %11, align 8
  %40 = extractvalue { ptr, i32 } %38, 1
  store i32 %40, ptr %12, align 4
  br label %41

41:                                               ; preds = %37
  %42 = load i32, ptr %12, align 4
  %43 = call i32 @llvm.eh.typeid.for.p0(ptr @_ZTISt9bad_alloc) #26
  %44 = icmp eq i32 %42, %43
  br i1 %44, label %45, label %54

45:                                               ; preds = %41
  call void @llvm.lifetime.start.p0(i64 8, ptr %13) #26
  %46 = load ptr, ptr %11, align 8
  %47 = call ptr @__cxa_begin_catch(ptr %46) #26
  store ptr %47, ptr %13, align 8
  store i32 3, ptr %10, align 4
  call void @__cxa_end_catch()
  call void @llvm.lifetime.end.p0(i64 8, ptr %13) #26
  br label %51

48:                                               ; preds = %36
  %49 = load i64, ptr %4, align 8, !tbaa !4
  %50 = call noalias ptr @malloc(i64 noundef %49) #30
  store ptr %50, ptr %7, align 8, !tbaa !8
  store i32 0, ptr %10, align 4
  br label %51

51:                                               ; preds = %48, %45, %33
  call void @llvm.lifetime.end.p0(i64 8, ptr %8) #26
  %52 = load i32, ptr %10, align 4
  switch i32 %52, label %71 [
    i32 0, label %53
    i32 3, label %55
  ]

53:                                               ; preds = %51
  br label %24, !llvm.loop !89

54:                                               ; preds = %41
  call void @llvm.lifetime.end.p0(i64 8, ptr %8) #26
  call void @llvm.lifetime.end.p0(i64 8, ptr %7) #26
  br label %66

55:                                               ; preds = %51, %24
  %56 = load ptr, ptr %7, align 8, !tbaa !8
  %57 = icmp eq ptr %56, null
  br i1 %57, label %58, label %62

58:                                               ; preds = %55
  %59 = load i8, ptr %5, align 1, !tbaa !14, !range !18, !noundef !19
  %60 = trunc i8 %59 to i1
  br i1 %60, label %62, label %61

61:                                               ; preds = %58
  call void @_ZSt17__throw_bad_allocv() #31
  unreachable

62:                                               ; preds = %58, %55
  %63 = load ptr, ptr %7, align 8, !tbaa !8
  store ptr %63, ptr %3, align 8
  store i32 1, ptr %10, align 4
  call void @llvm.lifetime.end.p0(i64 8, ptr %7) #26
  br label %64

64:                                               ; preds = %62, %17
  %65 = load ptr, ptr %3, align 8
  ret ptr %65

66:                                               ; preds = %54
  %67 = load ptr, ptr %11, align 8
  %68 = load i32, ptr %12, align 4
  %69 = insertvalue { ptr, i32 } poison, ptr %67, 0
  %70 = insertvalue { ptr, i32 } %69, i32 %68, 1
  resume { ptr, i32 } %70

71:                                               ; preds = %51
  unreachable
}