; Function Attrs: mustprogress noinline uwtable
define internal fastcc noundef ptr @_ZL9handleOOMmb(i64 noundef %0, i1 noundef zeroext %1) unnamed_addr #8 personality ptr @__gxx_personality_v0 {
  %3 = load i8, ptr @je_opt_experimental_infallible_new, align 1, !tbaa !51, !range !53, !noundef !54
  %4 = trunc nuw i8 %3 to i1
  br i1 %4, label %5, label %.preheader

5:                                                ; preds = %2
  %6 = icmp ugt i64 %0, 1073741823
  %7 = select i1 %6, ptr @.str.5, ptr @.str.6
  tail call void (ptr, ...) @je_safety_check_fail(ptr noundef nonnull @.str.7, i64 noundef %0, ptr noundef nonnull %7)
  br label %.thread22

.preheader:                                       ; preds = %2, %23
  %8 = tail call noundef i32 @pthread_mutex_lock(ptr noundef nonnull align 8 dereferenceable(40) @_ZZL9handleOOMmbE3mtx) #18
  %.not.i.i = icmp eq i32 %8, 0
  br i1 %.not.i.i, label %_ZNSt10lock_guardISt5mutexEC2ERS0_.exit, label %9

9:                                                ; preds = %.preheader
  tail call void @_ZSt20__throw_system_errori(i32 noundef %8) #19
  unreachable

_ZNSt10lock_guardISt5mutexEC2ERS0_.exit:          ; preds = %.preheader
  %10 = tail call noundef ptr @_ZSt15set_new_handlerPFvvE(ptr noundef null) #18
  %11 = tail call noundef ptr @_ZSt15set_new_handlerPFvvE(ptr noundef %10) #18
  %12 = tail call noundef i32 @pthread_mutex_unlock(ptr noundef nonnull align 8 dereferenceable(40) @_ZZL9handleOOMmbE3mtx) #18
  %13 = icmp eq ptr %10, null
  br i1 %13, label %.loopexit, label %14

14:                                               ; preds = %_ZNSt10lock_guardISt5mutexEC2ERS0_.exit
  invoke void %10()
          to label %23 unwind label %15

15:                                               ; preds = %14
  %16 = landingpad { ptr, i32 }
          cleanup
          catch ptr @_ZTISt9bad_alloc
  %17 = extractvalue { ptr, i32 } %16, 1
  %18 = tail call i32 @llvm.eh.typeid.for.p0(ptr nonnull @_ZTISt9bad_alloc) #18
  %19 = icmp eq i32 %17, %18
  br i1 %19, label %20, label %26

20:                                               ; preds = %15
  %21 = extractvalue { ptr, i32 } %16, 0
  %22 = tail call ptr @__cxa_begin_catch(ptr %21) #18
  tail call void @__cxa_end_catch()
  br label %.loopexit

23:                                               ; preds = %14
  %24 = tail call noalias ptr @malloc(i64 noundef %0) #20
  %25 = icmp eq ptr %24, null
  br i1 %25, label %.preheader, label %.thread22

26:                                               ; preds = %15
  resume { ptr, i32 } %16

.loopexit:                                        ; preds = %_ZNSt10lock_guardISt5mutexEC2ERS0_.exit, %20
  br i1 %1, label %.thread22, label %27

27:                                               ; preds = %.loopexit
  tail call void @_ZSt17__throw_bad_allocv() #19
  unreachable

.thread22:                                        ; preds = %23, %.loopexit, %5
  %.0 = phi ptr [ null, %5 ], [ null, %.loopexit ], [ %24, %23 ]
  ret ptr %.0
}